; ModuleID = 'source-C-CXX/33/3467.cpp'
source_filename = "source-C-CXX/33/3467.cpp"
target datalayout = "e-m:e-p270:32:32-p271:32:32-p272:64:64-i64:64-f80:128-n8:16:32:64-S128"
target triple = "x86_64-pc-linux-gnu"

%"class.std::ios_base::Init" = type { i8 }
%"class.std::basic_istream" = type { i32 (...)**, i64, %"class.std::basic_ios" }
%"class.std::basic_ios" = type { %"class.std::ios_base", %"class.std::basic_ostream"*, i8, i8, %"class.std::basic_streambuf"*, %"class.std::ctype"*, %"class.std::num_put"*, %"class.std::num_get"* }
%"class.std::ios_base" = type { i32 (...)**, i64, i64, i32, i32, i32, %"struct.std::ios_base::_Callback_list"*, %"struct.std::ios_base::_Words", [8 x %"struct.std::ios_base::_Words"], i32, %"struct.std::ios_base::_Words"*, %"class.std::locale" }
%"struct.std::ios_base::_Callback_list" = type { %"struct.std::ios_base::_Callback_list"*, void (i32, %"class.std::ios_base"*, i32)*, i32, i32 }
%"struct.std::ios_base::_Words" = type { i8*, i64 }
%"class.std::locale" = type { %"class.std::locale::_Impl"* }
%"class.std::locale::_Impl" = type { i32, %"class.std::locale::facet"**, i64, %"class.std::locale::facet"**, i8** }
%"class.std::locale::facet" = type <{ i32 (...)**, i32, [4 x i8] }>
%"class.std::basic_ostream" = type { i32 (...)**, %"class.std::basic_ios" }
%"class.std::basic_streambuf" = type { i32 (...)**, i8*, i8*, i8*, i8*, i8*, i8*, %"class.std::locale" }
%"class.std::ctype" = type <{ %"class.std::locale::facet.base", [4 x i8], %struct.__locale_struct*, i8, [7 x i8], i32*, i32*, i16*, i8, [256 x i8], [256 x i8], i8, [6 x i8] }>
%"class.std::locale::facet.base" = type <{ i32 (...)**, i32 }>
%struct.__locale_struct = type { [13 x %struct.__locale_data*], i16*, i32*, i32*, [13 x i8*] }
%struct.__locale_data = type opaque
%"class.std::num_put" = type { %"class.std::locale::facet.base", [4 x i8] }
%"class.std::num_get" = type { %"class.std::locale::facet.base", [4 x i8] }

@_ZStL8__ioinit = internal global %"class.std::ios_base::Init" zeroinitializer, align 1
@__dso_handle = external hidden global i8
@_ZSt3cin = external global %"class.std::basic_istream", align 8
@_ZSt4cout = external global %"class.std::basic_ostream", align 8
@.str = private unnamed_addr constant [4 x i8] c"/2=\00", align 1
@.str.1 = private unnamed_addr constant [4 x i8] c"End\00", align 1
@.str.2 = private unnamed_addr constant [6 x i8] c"*3+1=\00", align 1
@llvm.global_ctors = appending global [1 x { i32, void ()*, i8* }] [{ i32, void ()*, i8* } { i32 65535, void ()* @_GLOBAL__sub_I_3467.cpp, i8* null }]

declare void @_ZNSt8ios_base4InitC1Ev(%"class.std::ios_base::Init"* nonnull align 1 dereferenceable(1)) unnamed_addr #0

; Function Attrs: nounwind
declare void @_ZNSt8ios_base4InitD1Ev(%"class.std::ios_base::Init"* nonnull align 1 dereferenceable(1)) unnamed_addr #1

; Function Attrs: nofree nounwind
declare i32 @__cxa_atexit(void (i8*)*, i8*, i8*) local_unnamed_addr #2

; Function Attrs: mustprogress norecurse sspstrong uwtable
define dso_local i32 @main() local_unnamed_addr #3 {
  %1 = alloca i32, align 4
  %2 = bitcast i32* %1 to i8*
  call void @llvm.lifetime.start.p0i8(i64 4, i8* nonnull %2) #8
  %3 = call nonnull align 8 dereferenceable(16) %"class.std::basic_istream"* @_ZNSirsERi(%"class.std::basic_istream"* nonnull align 8 dereferenceable(16) @_ZSt3cin, i32* nonnull align 4 dereferenceable(4) %1)
  %4 = load i32, i32* %1, align 4, !tbaa !5
  %5 = srem i32 %4, 2
  %6 = icmp eq i32 %5, 1
  br i1 %6, label %7, label %8

7:                                                ; preds = %0
  call void @_Z2jii(i32 %4)
  br label %9

8:                                                ; preds = %0
  call void @_Z2oui(i32 %4)
  br label %9

9:                                                ; preds = %8, %7
  call void @llvm.lifetime.end.p0i8(i64 4, i8* nonnull %2) #8
  ret i32 0
}

; Function Attrs: argmemonly mustprogress nofree nosync nounwind willreturn
declare void @llvm.lifetime.start.p0i8(i64 immarg, i8* nocapture) #4

declare nonnull align 8 dereferenceable(16) %"class.std::basic_istream"* @_ZNSirsERi(%"class.std::basic_istream"* nonnull align 8 dereferenceable(16), i32* nonnull align 4 dereferenceable(4)) local_unnamed_addr #0

; Function Attrs: mustprogress sspstrong uwtable
define dso_local void @_Z2jii(i32 %0) local_unnamed_addr #5 {
  br label %2

2:                                                ; preds = %38, %1
  %3 = phi i32 [ %0, %1 ], [ %9, %38 ]
  %4 = icmp eq i32 %3, 1
  br i1 %4, label %5, label %7

5:                                                ; preds = %2
  %6 = tail call nonnull align 8 dereferenceable(8) %"class.std::basic_ostream"* @_ZSt16__ostream_insertIcSt11char_traitsIcEERSt13basic_ostreamIT_T0_ES6_PKS3_l(%"class.std::basic_ostream"* nonnull align 8 dereferenceable(8) @_ZSt4cout, i8* nonnull getelementptr inbounds ([4 x i8], [4 x i8]* @.str.1, i64 0, i64 0), i64 3)
  br label %45

7:                                                ; preds = %2
  %8 = mul nsw i32 %3, 3
  %9 = add nsw i32 %8, 1
  %10 = tail call nonnull align 8 dereferenceable(8) %"class.std::basic_ostream"* @_ZNSolsEi(%"class.std::basic_ostream"* nonnull align 8 dereferenceable(8) @_ZSt4cout, i32 %3)
  %11 = tail call nonnull align 8 dereferenceable(8) %"class.std::basic_ostream"* @_ZSt16__ostream_insertIcSt11char_traitsIcEERSt13basic_ostreamIT_T0_ES6_PKS3_l(%"class.std::basic_ostream"* nonnull align 8 dereferenceable(8) %10, i8* nonnull getelementptr inbounds ([6 x i8], [6 x i8]* @.str.2, i64 0, i64 0), i64 5)
  %12 = tail call nonnull align 8 dereferenceable(8) %"class.std::basic_ostream"* @_ZNSolsEi(%"class.std::basic_ostream"* nonnull align 8 dereferenceable(8) %10, i32 %9)
  %13 = bitcast %"class.std::basic_ostream"* %12 to i8**
  %14 = load i8*, i8** %13, align 8, !tbaa !9
  %15 = getelementptr i8, i8* %14, i64 -24
  %16 = bitcast i8* %15 to i64*
  %17 = load i64, i64* %16, align 8
  %18 = bitcast %"class.std::basic_ostream"* %12 to i8*
  %19 = add nsw i64 %17, 240
  %20 = getelementptr inbounds i8, i8* %18, i64 %19
  %21 = bitcast i8* %20 to %"class.std::ctype"**
  %22 = load %"class.std::ctype"*, %"class.std::ctype"** %21, align 8, !tbaa !11
  %23 = icmp eq %"class.std::ctype"* %22, null
  br i1 %23, label %24, label %25

24:                                               ; preds = %7
  tail call void @_ZSt16__throw_bad_castv() #9
  unreachable

25:                                               ; preds = %7
  %26 = getelementptr inbounds %"class.std::ctype", %"class.std::ctype"* %22, i64 0, i32 8
  %27 = load i8, i8* %26, align 8, !tbaa !15
  %28 = icmp eq i8 %27, 0
  br i1 %28, label %32, label %29

29:                                               ; preds = %25
  %30 = getelementptr inbounds %"class.std::ctype", %"class.std::ctype"* %22, i64 0, i32 9, i64 10
  %31 = load i8, i8* %30, align 1, !tbaa !17
  br label %38

32:                                               ; preds = %25
  tail call void @_ZNKSt5ctypeIcE13_M_widen_initEv(%"class.std::ctype"* nonnull align 8 dereferenceable(570) %22)
  %33 = bitcast %"class.std::ctype"* %22 to i8 (%"class.std::ctype"*, i8)***
  %34 = load i8 (%"class.std::ctype"*, i8)**, i8 (%"class.std::ctype"*, i8)*** %33, align 8, !tbaa !9
  %35 = getelementptr inbounds i8 (%"class.std::ctype"*, i8)*, i8 (%"class.std::ctype"*, i8)** %34, i64 6
  %36 = load i8 (%"class.std::ctype"*, i8)*, i8 (%"class.std::ctype"*, i8)** %35, align 8
  %37 = tail call signext i8 %36(%"class.std::ctype"* nonnull align 8 dereferenceable(570) %22, i8 signext 10)
  br label %38

38:                                               ; preds = %29, %32
  %39 = phi i8 [ %31, %29 ], [ %37, %32 ]
  %40 = tail call nonnull align 8 dereferenceable(8) %"class.std::basic_ostream"* @_ZNSo3putEc(%"class.std::basic_ostream"* nonnull align 8 dereferenceable(8) %12, i8 signext %39)
  %41 = tail call nonnull align 8 dereferenceable(8) %"class.std::basic_ostream"* @_ZNSo5flushEv(%"class.std::basic_ostream"* nonnull align 8 dereferenceable(8) %40)
  %42 = and i32 %9, 1
  %43 = icmp eq i32 %42, 0
  br i1 %43, label %44, label %2

44:                                               ; preds = %38
  tail call void @_Z2oui(i32 %9)
  br label %45

45:                                               ; preds = %44, %5
  ret void
}

; Function Attrs: mustprogress sspstrong uwtable
define dso_local void @_Z2oui(i32 %0) local_unnamed_addr #5 {
  br label %2

2:                                                ; preds = %33, %1
  %3 = phi i32 [ %0, %1 ], [ %4, %33 ]
  %4 = sdiv i32 %3, 2
  %5 = tail call nonnull align 8 dereferenceable(8) %"class.std::basic_ostream"* @_ZNSolsEi(%"class.std::basic_ostream"* nonnull align 8 dereferenceable(8) @_ZSt4cout, i32 %3)
  %6 = tail call nonnull align 8 dereferenceable(8) %"class.std::basic_ostream"* @_ZSt16__ostream_insertIcSt11char_traitsIcEERSt13basic_ostreamIT_T0_ES6_PKS3_l(%"class.std::basic_ostream"* nonnull align 8 dereferenceable(8) %5, i8* nonnull getelementptr inbounds ([4 x i8], [4 x i8]* @.str, i64 0, i64 0), i64 3)
  %7 = tail call nonnull align 8 dereferenceable(8) %"class.std::basic_ostream"* @_ZNSolsEi(%"class.std::basic_ostream"* nonnull align 8 dereferenceable(8) %5, i32 %4)
  %8 = bitcast %"class.std::basic_ostream"* %7 to i8**
  %9 = load i8*, i8** %8, align 8, !tbaa !9
  %10 = getelementptr i8, i8* %9, i64 -24
  %11 = bitcast i8* %10 to i64*
  %12 = load i64, i64* %11, align 8
  %13 = bitcast %"class.std::basic_ostream"* %7 to i8*
  %14 = add nsw i64 %12, 240
  %15 = getelementptr inbounds i8, i8* %13, i64 %14
  %16 = bitcast i8* %15 to %"class.std::ctype"**
  %17 = load %"class.std::ctype"*, %"class.std::ctype"** %16, align 8, !tbaa !11
  %18 = icmp eq %"class.std::ctype"* %17, null
  br i1 %18, label %19, label %20

19:                                               ; preds = %2
  tail call void @_ZSt16__throw_bad_castv() #9
  unreachable

20:                                               ; preds = %2
  %21 = getelementptr inbounds %"class.std::ctype", %"class.std::ctype"* %17, i64 0, i32 8
  %22 = load i8, i8* %21, align 8, !tbaa !15
  %23 = icmp eq i8 %22, 0
  br i1 %23, label %27, label %24

24:                                               ; preds = %20
  %25 = getelementptr inbounds %"class.std::ctype", %"class.std::ctype"* %17, i64 0, i32 9, i64 10
  %26 = load i8, i8* %25, align 1, !tbaa !17
  br label %33

27:                                               ; preds = %20
  tail call void @_ZNKSt5ctypeIcE13_M_widen_initEv(%"class.std::ctype"* nonnull align 8 dereferenceable(570) %17)
  %28 = bitcast %"class.std::ctype"* %17 to i8 (%"class.std::ctype"*, i8)***
  %29 = load i8 (%"class.std::ctype"*, i8)**, i8 (%"class.std::ctype"*, i8)*** %28, align 8, !tbaa !9
  %30 = getelementptr inbounds i8 (%"class.std::ctype"*, i8)*, i8 (%"class.std::ctype"*, i8)** %29, i64 6
  %31 = load i8 (%"class.std::ctype"*, i8)*, i8 (%"class.std::ctype"*, i8)** %30, align 8
  %32 = tail call signext i8 %31(%"class.std::ctype"* nonnull align 8 dereferenceable(570) %17, i8 signext 10)
  br label %33

33:                                               ; preds = %24, %27
  %34 = phi i8 [ %26, %24 ], [ %32, %27 ]
  %35 = tail call nonnull align 8 dereferenceable(8) %"class.std::basic_ostream"* @_ZNSo3putEc(%"class.std::basic_ostream"* nonnull align 8 dereferenceable(8) %7, i8 signext %34)
  %36 = tail call nonnull align 8 dereferenceable(8) %"class.std::basic_ostream"* @_ZNSo5flushEv(%"class.std::basic_ostream"* nonnull align 8 dereferenceable(8) %35)
  %37 = and i32 %4, 1
  %38 = icmp eq i32 %37, 0
  br i1 %38, label %2, label %39

39:                                               ; preds = %33
  tail call void @_Z2jii(i32 %4)
  ret void
}

; Function Attrs: argmemonly mustprogress nofree nosync nounwind willreturn
declare void @llvm.lifetime.end.p0i8(i64 immarg, i8* nocapture) #4

declare nonnull align 8 dereferenceable(8) %"class.std::basic_ostream"* @_ZNSolsEi(%"class.std::basic_ostream"* nonnull align 8 dereferenceable(8), i32) local_unnamed_addr #0

declare nonnull align 8 dereferenceable(8) %"class.std::basic_ostream"* @_ZSt16__ostream_insertIcSt11char_traitsIcEERSt13basic_ostreamIT_T0_ES6_PKS3_l(%"class.std::basic_ostream"* nonnull align 8 dereferenceable(8), i8*, i64) local_unnamed_addr #0

declare nonnull align 8 dereferenceable(8) %"class.std::basic_ostream"* @_ZNSo3putEc(%"class.std::basic_ostream"* nonnull align 8 dereferenceable(8), i8 signext) local_unnamed_addr #0

declare nonnull align 8 dereferenceable(8) %"class.std::basic_ostream"* @_ZNSo5flushEv(%"class.std::basic_ostream"* nonnull align 8 dereferenceable(8)) local_unnamed_addr #0

; Function Attrs: noreturn
declare void @_ZSt16__throw_bad_castv() local_unnamed_addr #6

declare void @_ZNKSt5ctypeIcE13_M_widen_initEv(%"class.std::ctype"* nonnull align 8 dereferenceable(570)) local_unnamed_addr #0

; Function Attrs: sspstrong uwtable
define internal void @_GLOBAL__sub_I_3467.cpp() #7 section ".text.startup" {
  tail call void @_ZNSt8ios_base4InitC1Ev(%"class.std::ios_base::Init"* nonnull align 1 dereferenceable(1) @_ZStL8__ioinit)
  %1 = tail call i32 @__cxa_atexit(void (i8*)* bitcast (void (%"class.std::ios_base::Init"*)* @_ZNSt8ios_base4InitD1Ev to void (i8*)*), i8* getelementptr inbounds (%"class.std::ios_base::Init", %"class.std::ios_base::Init"* @_ZStL8__ioinit, i64 0, i32 0), i8* nonnull @__dso_handle) #8
  ret void
}


!llvm.module.flags = !{!0, !1, !2, !3}
!llvm.ident = !{!4}

!0 = !{i32 1, !"wchar_size", i32 4}
!1 = !{i32 7, !"PIC Level", i32 2}
!2 = !{i32 7, !"PIE Level", i32 2}
!3 = !{i32 7, !"uwtable", i32 1}
!4 = !{!"clang version 13.0.0"}
!5 = !{!6, !6, i64 0}
!6 = !{!"int", !7, i64 0}
!7 = !{!"omnipotent char", !8, i64 0}
!8 = !{!"Simple C++ TBAA"}
!9 = !{!10, !10, i64 0}
!10 = !{!"vtable pointer", !8, i64 0}
!11 = !{!12, !13, i64 240}
!12 = !{!"_ZTSSt9basic_iosIcSt11char_traitsIcEE", !13, i64 216, !7, i64 224, !14, i64 225, !13, i64 232, !13, i64 240, !13, i64 248, !13, i64 256}
!13 = !{!"any pointer", !7, i64 0}
!14 = !{!"bool", !7, i64 0}
!15 = !{!16, !7, i64 56}
!16 = !{!"_ZTSSt5ctypeIcE", !13, i64 16, !14, i64 24, !13, i64 32, !13, i64 40, !13, i64 48, !7, i64 56, !7, i64 57, !7, i64 313, !7, i64 569}
!17 = !{!7, !7, i64 0}
